target datalayout = "e-m:e-p270:32:32-p271:32:32-p272:64:64-i64:64-i128:128-f80:128-n8:16:32:64-S128"
target triple = "x86_64-pc-linux-gnu"

; Function Attrs: nounwind uwtable
define void @ff_ivi_col_haar4(ptr noundef %0, ptr noundef %1, i64 noundef %2, ptr noundef %3) #0 {
  %5 = alloca ptr, align 8
  %6 = alloca ptr, align 8
  %7 = alloca i64, align 8
  %8 = alloca ptr, align 8
  %9 = alloca i32, align 4
  %10 = alloca i32, align 4
  %11 = alloca i32, align 4
  %12 = alloca i32, align 4
  %13 = alloca i32, align 4
  %14 = alloca i32, align 4
  store ptr %0, ptr %5, align 8, !tbaa !40
  store ptr %1, ptr %6, align 8, !tbaa !30
  store i64 %2, ptr %7, align 8, !tbaa !11
  store ptr %3, ptr %8, align 8, !tbaa !9
  call void @llvm.lifetime.start.p0(i64 4, ptr %9) #4
  call void @llvm.lifetime.start.p0(i64 4, ptr %10) #4
  call void @llvm.lifetime.start.p0(i64 4, ptr %11) #4
  call void @llvm.lifetime.start.p0(i64 4, ptr %12) #4
  call void @llvm.lifetime.start.p0(i64 4, ptr %13) #4
  call void @llvm.lifetime.start.p0(i64 4, ptr %14) #4
  store i32 0, ptr %9, align 4, !tbaa !13
  br label %15

15:                                               ; preds = %115, %4
  %16 = load i32, ptr %9, align 4, !tbaa !13
  %17 = icmp slt i32 %16, 4
  br i1 %17, label %18, label %118

18:                                               ; preds = %15
  %19 = load ptr, ptr %8, align 8, !tbaa !9
  %20 = load i32, ptr %9, align 4, !tbaa !13
  %21 = sext i32 %20 to i64
  %22 = getelementptr inbounds i8, ptr %19, i64 %21
  %23 = load i8, ptr %22, align 1, !tbaa !34
  %24 = icmp ne i8 %23, 0
  br i1 %24, label %25, label %93

25:                                               ; preds = %18
  %26 = load ptr, ptr %5, align 8, !tbaa !40
  %27 = getelementptr inbounds i32, ptr %26, i64 0
  %28 = load i32, ptr %27, align 4, !tbaa !13
  %29 = load ptr, ptr %5, align 8, !tbaa !40
  %30 = getelementptr inbounds i32, ptr %29, i64 4
  %31 = load i32, ptr %30, align 4, !tbaa !13
  %32 = sub nsw i32 %28, %31
  %33 = ashr i32 %32, 1
  store i32 %33, ptr %14, align 4, !tbaa !13
  %34 = load ptr, ptr %5, align 8, !tbaa !40
  %35 = getelementptr inbounds i32, ptr %34, i64 0
  %36 = load i32, ptr %35, align 4, !tbaa !13
  %37 = load ptr, ptr %5, align 8, !tbaa !40
  %38 = getelementptr inbounds i32, ptr %37, i64 4
  %39 = load i32, ptr %38, align 4, !tbaa !13
  %40 = add nsw i32 %36, %39
  %41 = ashr i32 %40, 1
  store i32 %41, ptr %10, align 4, !tbaa !13
  %42 = load i32, ptr %14, align 4, !tbaa !13
  store i32 %42, ptr %11, align 4, !tbaa !13
  %43 = load i32, ptr %10, align 4, !tbaa !13
  %44 = load ptr, ptr %5, align 8, !tbaa !40
  %45 = getelementptr inbounds i32, ptr %44, i64 8
  %46 = load i32, ptr %45, align 4, !tbaa !13
  %47 = sub nsw i32 %43, %46
  %48 = ashr i32 %47, 1
  store i32 %48, ptr %14, align 4, !tbaa !13
  %49 = load i32, ptr %10, align 4, !tbaa !13
  %50 = load ptr, ptr %5, align 8, !tbaa !40
  %51 = getelementptr inbounds i32, ptr %50, i64 8
  %52 = load i32, ptr %51, align 4, !tbaa !13
  %53 = add nsw i32 %49, %52
  %54 = ashr i32 %53, 1
  store i32 %54, ptr %12, align 4, !tbaa !13
  %55 = load i32, ptr %14, align 4, !tbaa !13
  store i32 %55, ptr %13, align 4, !tbaa !13
  %56 = load i32, ptr %12, align 4, !tbaa !13
  %57 = trunc i32 %56 to i16
  %58 = load ptr, ptr %6, align 8, !tbaa !30
  %59 = load i64, ptr %7, align 8, !tbaa !11
  %60 = mul nsw i64 0, %59
  %61 = getelementptr inbounds i16, ptr %58, i64 %60
  store i16 %57, ptr %61, align 2, !tbaa !32
  %62 = load i32, ptr %13, align 4, !tbaa !13
  %63 = trunc i32 %62 to i16
  %64 = load ptr, ptr %6, align 8, !tbaa !30
  %65 = load i64, ptr %7, align 8, !tbaa !11
  %66 = mul nsw i64 1, %65
  %67 = getelementptr inbounds i16, ptr %64, i64 %66
  store i16 %63, ptr %67, align 2, !tbaa !32
  %68 = load i32, ptr %11, align 4, !tbaa !13
  %69 = load ptr, ptr %5, align 8, !tbaa !40
  %70 = getelementptr inbounds i32, ptr %69, i64 12
  %71 = load i32, ptr %70, align 4, !tbaa !13
  %72 = sub nsw i32 %68, %71
  %73 = ashr i32 %72, 1
  store i32 %73, ptr %14, align 4, !tbaa !13
  %74 = load i32, ptr %11, align 4, !tbaa !13
  %75 = load ptr, ptr %5, align 8, !tbaa !40
  %76 = getelementptr inbounds i32, ptr %75, i64 12
  %77 = load i32, ptr %76, align 4, !tbaa !13
  %78 = add nsw i32 %74, %77
  %79 = ashr i32 %78, 1
  store i32 %79, ptr %12, align 4, !tbaa !13
  %80 = load i32, ptr %14, align 4, !tbaa !13
  store i32 %80, ptr %13, align 4, !tbaa !13
  %81 = load i32, ptr %12, align 4, !tbaa !13
  %82 = trunc i32 %81 to i16
  %83 = load ptr, ptr %6, align 8, !tbaa !30
  %84 = load i64, ptr %7, align 8, !tbaa !11
  %85 = mul nsw i64 2, %84
  %86 = getelementptr inbounds i16, ptr %83, i64 %85
  store i16 %82, ptr %86, align 2, !tbaa !32
  %87 = load i32, ptr %13, align 4, !tbaa !13
  %88 = trunc i32 %87 to i16
  %89 = load ptr, ptr %6, align 8, !tbaa !30
  %90 = load i64, ptr %7, align 8, !tbaa !11
  %91 = mul nsw i64 3, %90
  %92 = getelementptr inbounds i16, ptr %89, i64 %91
  store i16 %88, ptr %92, align 2, !tbaa !32
  br label %110

93:                                               ; preds = %18
  %94 = load ptr, ptr %6, align 8, !tbaa !30
  %95 = load i64, ptr %7, align 8, !tbaa !11
  %96 = mul nsw i64 3, %95
  %97 = getelementptr inbounds i16, ptr %94, i64 %96
  store i16 0, ptr %97, align 2, !tbaa !32
  %98 = load ptr, ptr %6, align 8, !tbaa !30
  %99 = load i64, ptr %7, align 8, !tbaa !11
  %100 = mul nsw i64 2, %99
  %101 = getelementptr inbounds i16, ptr %98, i64 %100
  store i16 0, ptr %101, align 2, !tbaa !32
  %102 = load ptr, ptr %6, align 8, !tbaa !30
  %103 = load i64, ptr %7, align 8, !tbaa !11
  %104 = mul nsw i64 1, %103
  %105 = getelementptr inbounds i16, ptr %102, i64 %104
  store i16 0, ptr %105, align 2, !tbaa !32
  %106 = load ptr, ptr %6, align 8, !tbaa !30
  %107 = load i64, ptr %7, align 8, !tbaa !11
  %108 = mul nsw i64 0, %107
  %109 = getelementptr inbounds i16, ptr %106, i64 %108
  store i16 0, ptr %109, align 2, !tbaa !32
  br label %110

110:                                              ; preds = %93, %25
  %111 = load ptr, ptr %5, align 8, !tbaa !40
  %112 = getelementptr inbounds nuw i32, ptr %111, i32 1
  store ptr %112, ptr %5, align 8, !tbaa !40
  %113 = load ptr, ptr %6, align 8, !tbaa !30
  %114 = getelementptr inbounds nuw i16, ptr %113, i32 1
  store ptr %114, ptr %6, align 8, !tbaa !30
  br label %115

115:                                              ; preds = %110
  %116 = load i32, ptr %9, align 4, !tbaa !13
  %117 = add nsw i32 %116, 1
  store i32 %117, ptr %9, align 4, !tbaa !13
  br label %15, !llvm.loop !49

118:                                              ; preds = %15
  call void @llvm.lifetime.end.p0(i64 4, ptr %14) #4
  call void @llvm.lifetime.end.p0(i64 4, ptr %13) #4
  call void @llvm.lifetime.end.p0(i64 4, ptr %12) #4
  call void @llvm.lifetime.end.p0(i64 4, ptr %11) #4
  call void @llvm.lifetime.end.p0(i64 4, ptr %10) #4
  call void @llvm.lifetime.end.p0(i64 4, ptr %9) #4
  ret void
}