; Function Attrs: nofree norecurse nosync nounwind memory(argmem: readwrite) uwtable
define void @ff_ivi_col_haar4(ptr noundef readonly captures(none) %0, ptr noundef writeonly captures(none) %1, i64 noundef %2, ptr noundef readonly captures(none) %3) local_unnamed_addr #2 {
  %.idx43 = shl nsw i64 %2, 2
  %.idx44 = mul nsw i64 %2, 6
  br label %5

5:                                                ; preds = %4, %39
  %indvars.iv = phi i64 [ 0, %4 ], [ %indvars.iv.next, %39 ]
  %.047 = phi ptr [ %0, %4 ], [ %40, %39 ]
  %.04046 = phi ptr [ %1, %4 ], [ %41, %39 ]
  %6 = getelementptr inbounds nuw i8, ptr %3, i64 %indvars.iv
  %7 = load i8, ptr %6, align 1, !tbaa !28
  %.not = icmp eq i8 %7, 0
  br i1 %.not, label %35, label %8

8:                                                ; preds = %5
  %9 = load i32, ptr %.047, align 4, !tbaa !34
  %10 = getelementptr inbounds nuw i8, ptr %.047, i64 16
  %11 = load i32, ptr %10, align 4, !tbaa !34
  %12 = sub nsw i32 %9, %11
  %13 = ashr i32 %12, 1
  %14 = add nsw i32 %11, %9
  %15 = ashr i32 %14, 1
  %16 = getelementptr inbounds nuw i8, ptr %.047, i64 32
  %17 = load i32, ptr %16, align 4, !tbaa !34
  %18 = sub nsw i32 %15, %17
  %19 = lshr i32 %18, 1
  %20 = add nsw i32 %15, %17
  %21 = lshr i32 %20, 1
  %22 = trunc i32 %21 to i16
  store i16 %22, ptr %.04046, align 2, !tbaa !27
  %23 = trunc i32 %19 to i16
  %24 = getelementptr inbounds i16, ptr %.04046, i64 %2
  store i16 %23, ptr %24, align 2, !tbaa !27
  %25 = getelementptr inbounds nuw i8, ptr %.047, i64 48
  %26 = load i32, ptr %25, align 4, !tbaa !34
  %27 = sub nsw i32 %13, %26
  %28 = lshr i32 %27, 1
  %29 = add nsw i32 %26, %13
  %30 = lshr i32 %29, 1
  %31 = trunc i32 %30 to i16
  %32 = getelementptr inbounds i8, ptr %.04046, i64 %.idx43
  store i16 %31, ptr %32, align 2, !tbaa !27
  %33 = trunc i32 %28 to i16
  %34 = getelementptr inbounds i8, ptr %.04046, i64 %.idx44
  store i16 %33, ptr %34, align 2, !tbaa !27
  br label %39

35:                                               ; preds = %5
  %36 = getelementptr inbounds i8, ptr %.04046, i64 %.idx44
  store i16 0, ptr %36, align 2, !tbaa !27
  %37 = getelementptr inbounds i8, ptr %.04046, i64 %.idx43
  store i16 0, ptr %37, align 2, !tbaa !27
  %38 = getelementptr inbounds i16, ptr %.04046, i64 %2
  store i16 0, ptr %38, align 2, !tbaa !27
  store i16 0, ptr %.04046, align 2, !tbaa !27
  br label %39

39:                                               ; preds = %35, %8
  %40 = getelementptr inbounds nuw i8, ptr %.047, i64 4
  %41 = getelementptr inbounds nuw i8, ptr %.04046, i64 2
  %indvars.iv.next = add nuw nsw i64 %indvars.iv, 1
  %exitcond.not = icmp eq i64 %indvars.iv.next, 4
  br i1 %exitcond.not, label %42, label %5, !llvm.loop !42

42:                                               ; preds = %39
  ret void
}